target datalayout = "e-m:e-p270:32:32-p271:32:32-p272:64:64-i64:64-i128:128-f80:128-n8:16:32:64-S128"
target triple = "x86_64-pc-linux-gnu"

%struct.QOSState = type { ptr, %struct.QGuestAllocator, ptr, ptr }
%struct.QGuestAllocator = type { i32, i64, i64, i32, ptr, ptr }
%struct.QOSOps = type { ptr, ptr, ptr, ptr }

; Function Attrs: nounwind sspstrong uwtable
define dso_local ptr @qtest_vboot(ptr noundef %0, ptr noundef %1, ptr noundef %2) #0 {
  %4 = alloca ptr, align 8
  %5 = alloca ptr, align 8
  %6 = alloca ptr, align 8
  %7 = alloca ptr, align 8
  %8 = alloca ptr, align 8
  %9 = alloca i64, align 8
  %10 = alloca i64, align 8
  %11 = alloca ptr, align 8
  %12 = alloca ptr, align 8
  store ptr %0, ptr %4, align 8
  store ptr %1, ptr %5, align 8
  store ptr %2, ptr %6, align 8
  call void @llvm.lifetime.start.p0(i64 8, ptr %7) #14
  store ptr null, ptr %7, align 8, !annotation !4
  call void @llvm.lifetime.start.p0(i64 8, ptr %8) #14
  call void @llvm.lifetime.start.p0(i64 8, ptr %9) #14
  store i64 1, ptr %9, align 8
  call void @llvm.lifetime.start.p0(i64 8, ptr %10) #14
  store i64 72, ptr %10, align 8
  call void @llvm.lifetime.start.p0(i64 8, ptr %11) #14
  store ptr null, ptr %11, align 8, !annotation !4
  %13 = load i64, ptr %10, align 8
  %14 = icmp eq i64 %13, 1
  br i1 %14, label %15, label %18

15:                                               ; preds = %3
  %16 = load i64, ptr %9, align 8
  %17 = call noalias ptr @g_malloc0(i64 noundef %16) #15
  store ptr %17, ptr %11, align 8
  br label %39

18:                                               ; preds = %3
  %19 = load i64, ptr %9, align 8
  %20 = call i1 @llvm.is.constant.i64(i64 %19)
  br i1 %20, label %21, label %34

21:                                               ; preds = %18
  %22 = load i64, ptr %10, align 8
  %23 = icmp eq i64 %22, 0
  br i1 %23, label %29, label %24

24:                                               ; preds = %21
  %25 = load i64, ptr %9, align 8
  %26 = load i64, ptr %10, align 8
  %27 = udiv i64 -1, %26
  %28 = icmp ule i64 %25, %27
  br i1 %28, label %29, label %34

29:                                               ; preds = %24, %21
  %30 = load i64, ptr %9, align 8
  %31 = load i64, ptr %10, align 8
  %32 = mul i64 %30, %31
  %33 = call noalias ptr @g_malloc0(i64 noundef %32) #15
  store ptr %33, ptr %11, align 8
  br label %38

34:                                               ; preds = %24, %18
  %35 = load i64, ptr %9, align 8
  %36 = load i64, ptr %10, align 8
  %37 = call noalias ptr @g_malloc0_n(i64 noundef %35, i64 noundef %36) #16
  store ptr %37, ptr %11, align 8
  br label %38

38:                                               ; preds = %34, %29
  br label %39

39:                                               ; preds = %38, %15
  %40 = load ptr, ptr %11, align 8
  store ptr %40, ptr %12, align 8
  call void @llvm.lifetime.end.p0(i64 8, ptr %11) #14
  call void @llvm.lifetime.end.p0(i64 8, ptr %10) #14
  call void @llvm.lifetime.end.p0(i64 8, ptr %9) #14
  %41 = load ptr, ptr %12, align 8
  store ptr %41, ptr %8, align 8
  %42 = load ptr, ptr %5, align 8
  %43 = load ptr, ptr %6, align 8
  %44 = call noalias ptr @g_strdup_vprintf(ptr noundef %42, ptr noundef %43)
  store ptr %44, ptr %7, align 8
  %45 = load ptr, ptr %7, align 8
  %46 = call ptr @qtest_init(ptr noundef %45)
  %47 = load ptr, ptr %8, align 8
  %48 = getelementptr inbounds nuw %struct.QOSState, ptr %47, i32 0, i32 0
  store ptr %46, ptr %48, align 8
  %49 = load ptr, ptr %4, align 8
  %50 = load ptr, ptr %8, align 8
  %51 = getelementptr inbounds nuw %struct.QOSState, ptr %50, i32 0, i32 3
  store ptr %49, ptr %51, align 8
  %52 = load ptr, ptr %4, align 8
  %53 = icmp ne ptr %52, null
  br i1 %53, label %54, label %74

54:                                               ; preds = %39
  %55 = load ptr, ptr %4, align 8
  %56 = getelementptr inbounds nuw %struct.QOSOps, ptr %55, i32 0, i32 0
  %57 = load ptr, ptr %56, align 8
  %58 = load ptr, ptr %8, align 8
  %59 = getelementptr inbounds nuw %struct.QOSState, ptr %58, i32 0, i32 1
  %60 = load ptr, ptr %8, align 8
  %61 = getelementptr inbounds nuw %struct.QOSState, ptr %60, i32 0, i32 0
  %62 = load ptr, ptr %61, align 8
  call void %57(ptr noundef %59, ptr noundef %62, i32 noundef 0)
  %63 = load ptr, ptr %4, align 8
  %64 = getelementptr inbounds nuw %struct.QOSOps, ptr %63, i32 0, i32 1
  %65 = load ptr, ptr %64, align 8
  %66 = load ptr, ptr %8, align 8
  %67 = getelementptr inbounds nuw %struct.QOSState, ptr %66, i32 0, i32 0
  %68 = load ptr, ptr %67, align 8
  %69 = load ptr, ptr %8, align 8
  %70 = getelementptr inbounds nuw %struct.QOSState, ptr %69, i32 0, i32 1
  %71 = call ptr %65(ptr noundef %68, ptr noundef %70)
  %72 = load ptr, ptr %8, align 8
  %73 = getelementptr inbounds nuw %struct.QOSState, ptr %72, i32 0, i32 2
  store ptr %71, ptr %73, align 8
  br label %74

74:                                               ; preds = %54, %39
  %75 = load ptr, ptr %7, align 8
  call void @g_free(ptr noundef %75)
  %76 = load ptr, ptr %8, align 8
  call void @llvm.lifetime.end.p0(i64 8, ptr %8) #14
  call void @llvm.lifetime.end.p0(i64 8, ptr %7) #14
  ret ptr %76
}