; Function Attrs: nounwind sspstrong uwtable
define dso_local noundef ptr @qtest_vboot(ptr noundef %0, ptr noundef %1, ptr noundef %2) local_unnamed_addr #0 {
  %4 = tail call noalias dereferenceable_or_null(72) ptr @g_malloc0(i64 noundef 72) #12
  %5 = tail call noalias ptr @g_strdup_vprintf(ptr noundef %1, ptr noundef %2) #13
  %6 = tail call ptr @qtest_init(ptr noundef %5) #13
  store ptr %6, ptr %4, align 8
  %7 = getelementptr inbounds nuw i8, ptr %4, i64 64
  store ptr %0, ptr %7, align 8
  %.not = icmp eq ptr %0, null
  br i1 %.not, label %16, label %8

8:                                                ; preds = %3
  %9 = load ptr, ptr %0, align 8
  %10 = getelementptr inbounds nuw i8, ptr %4, i64 8
  tail call void %9(ptr noundef nonnull %10, ptr noundef %6, i32 noundef 0) #13
  %11 = getelementptr inbounds nuw i8, ptr %0, i64 8
  %12 = load ptr, ptr %11, align 8
  %13 = load ptr, ptr %4, align 8
  %14 = tail call ptr %12(ptr noundef %13, ptr noundef nonnull %10) #13
  %15 = getelementptr inbounds nuw i8, ptr %4, i64 56
  store ptr %14, ptr %15, align 8
  br label %16

16:                                               ; preds = %8, %3
  tail call void @g_free(ptr noundef %5) #13
  ret ptr %4
}